; Function Attrs: nounwind uwtable
define internal range(i32 0, 2) i32 @_path_get_points_border(ptr noundef %0, ptr noundef %1, ptr noundef captures(none) %2, ptr noundef captures(none) %3, ptr noundef %4, ptr noundef captures(none) %5, i32 noundef %6, ptr noundef readonly %7) #3 {
  %9 = icmp eq i32 %6, 0
  %10 = icmp ne ptr %7, null
  %or.cond = or i1 %9, %10
  br i1 %or.cond, label %11, label %22

11:                                               ; preds = %8
  br i1 %10, label %12, label %17

12:                                               ; preds = %11
  %13 = getelementptr inbounds nuw i8, ptr %7, i64 480
  %14 = load i32, ptr %13, align 16, !tbaa !39
  %15 = sitofp i32 %14 to float
  %16 = fpext reassoc nsz arcp contract afn float %15 to double
  br label %17

17:                                               ; preds = %11, %12
  %18 = phi double [ %16, %12 ], [ 0.000000e+00, %11 ]
  %19 = getelementptr inbounds nuw i8, ptr %0, i64 96
  %20 = load ptr, ptr %19, align 16, !tbaa !54
  %21 = tail call fastcc i32 @_path_get_pts_border(ptr noundef %0, ptr noundef %1, double noundef %18, i32 noundef 0, ptr noundef %20, ptr noundef %2, ptr noundef %3, ptr noundef %4, ptr noundef %5, i32 noundef %6)
  br label %22

22:                                               ; preds = %8, %17
  %.0 = phi i32 [ %21, %17 ], [ 0, %8 ]
  ret i32 %.0
}